; Function Attrs: mustprogress uwtable
define void @_ZNK6icu_7511Normalizer213normalizeUTF8EjNS_11StringPieceERNS_8ByteSinkEPNS_5EditsER10UErrorCode(ptr noundef nonnull align 8 dereferenceable(8) %this, i32 %0, ptr %src.coerce0, i32 %src.coerce1, ptr noundef nonnull align 8 dereferenceable(8) %sink, ptr noundef readnone %edits, ptr noundef nonnull align 4 dereferenceable(4) %errorCode) unnamed_addr #4 align 2 personality ptr @__gxx_personality_v0 {
entry:
  %src16 = alloca %"class.icu_75::UnicodeString", align 8
  %ref.tmp = alloca %"class.icu_75::UnicodeString", align 8
  %1 = load i32, ptr %errorCode, align 4
  %cmp.i = icmp slt i32 %1, 1
  br i1 %cmp.i, label %if.end, label %return

if.end:                                           ; preds = %entry
  %cmp.not = icmp eq ptr %edits, null
  br i1 %cmp.not, label %if.end3, label %if.then2

if.then2:                                         ; preds = %if.end
  store i32 16, ptr %errorCode, align 4
  br label %return

if.end3:                                          ; preds = %if.end
  call void @_ZN6icu_7513UnicodeString8fromUTF8ENS_11StringPieceE(ptr nonnull sret(%"class.icu_75::UnicodeString") align 8 %src16, ptr %src.coerce0, i32 %src.coerce1)
  call void @llvm.experimental.noalias.scope.decl(metadata !4)
  store ptr getelementptr inbounds ({ [13 x ptr] }, ptr @_ZTVN6icu_7513UnicodeStringE, i64 0, i32 0, i64 2), ptr %ref.tmp, align 8, !alias.scope !4
  %fUnion2.i.i = getelementptr inbounds i8, ptr %ref.tmp, i64 8
  store i16 2, ptr %fUnion2.i.i, align 8, !alias.scope !4
  %vtable.i = load ptr, ptr %this, align 8, !noalias !4
  %vfn.i = getelementptr inbounds i8, ptr %vtable.i, i64 24
  %2 = load ptr, ptr %vfn.i, align 8, !noalias !4
  %call.i = invoke noundef nonnull align 8 dereferenceable(64) ptr %2(ptr noundef nonnull align 8 dereferenceable(8) %this, ptr noundef nonnull align 8 dereferenceable(64) %src16, ptr noundef nonnull align 8 dereferenceable(64) %ref.tmp, ptr noundef nonnull align 4 dereferenceable(4) %errorCode)
          to label %invoke.cont unwind label %lpad.i

lpad.i:                                           ; preds = %if.end3
  %3 = landingpad { ptr, i32 }
          cleanup
  br label %ehcleanup

invoke.cont:                                      ; preds = %if.end3
  invoke void @_ZNK6icu_7513UnicodeString6toUTF8ERNS_8ByteSinkE(ptr noundef nonnull align 8 dereferenceable(64) %ref.tmp, ptr noundef nonnull align 8 dereferenceable(8) %sink)
          to label %invoke.cont5 unwind label %lpad4

invoke.cont5:                                     ; preds = %invoke.cont
  call void @_ZN6icu_7513UnicodeStringD1Ev(ptr noundef nonnull align 8 dereferenceable(64) %ref.tmp) #13
  call void @_ZN6icu_7513UnicodeStringD1Ev(ptr noundef nonnull align 8 dereferenceable(64) %src16) #13
  br label %return

return:                                           ; preds = %entry, %invoke.cont5, %if.then2
  ret void

lpad4:                                            ; preds = %invoke.cont
  %4 = landingpad { ptr, i32 }
          cleanup
  br label %ehcleanup

ehcleanup:                                        ; preds = %lpad.i, %lpad4
  %.pn = phi { ptr, i32 } [ %4, %lpad4 ], [ %3, %lpad.i ]
  call void @_ZN6icu_7513UnicodeStringD1Ev(ptr noundef nonnull align 8 dereferenceable(64) %ref.tmp) #13
  call void @_ZN6icu_7513UnicodeStringD1Ev(ptr noundef nonnull align 8 dereferenceable(64) %src16) #13
  resume { ptr, i32 } %.pn
}